   1              		.cpu arm926ej-s
   2              		.fpu softvfp
   3              		.eabi_attribute 20, 1
   4              		.eabi_attribute 21, 1
   5              		.eabi_attribute 23, 3
   6              		.eabi_attribute 24, 1
   7              		.eabi_attribute 25, 1
   8              		.eabi_attribute 26, 1
   9              		.eabi_attribute 30, 6
  10              		.eabi_attribute 34, 0
  11              		.eabi_attribute 18, 4
  12              		.file	"RunApplication.c"
  13              		.text
  14              	.Ltext0:
  15              		.cfi_sections	.debug_frame
  16              		.comm	ApplicationThread,168,4
  17              		.comm	glIsApplicationActive,4,4
  18              		.section	.rodata
  19              		.align	2
  20              	.LC0:
  21 0000 44656275 		.ascii	"Debug Console Initialized\000"
  21      6720436F 
  21      6E736F6C 
  21      6520496E 
  21      69746961 
  22 001a 0000     		.align	2
  23              	.LC1:
  24 001c 43726561 		.ascii	"Create Event\000"
  24      74652045 
  24      76656E74 
  24      00
  25 0029 000000   		.align	2
  26              	.LC2:
  27 002c 0A0A0A53 		.ascii	"\012\012\012Start Ellisys NOW\012\000"
  27      74617274 
  27      20456C6C 
  27      69737973 
  27      204E4F57 
  28 0042 0000     		.align	2
  29              	.LC3:
  30 0044 55534220 		.ascii	"USB Initialized\000"
  30      496E6974 
  30      69616C69 
  30      7A656400 
  31              		.align	2
  32              	.LC4:
  33 0054 0A417070 		.ascii	"\012Application started with %d\012\000"
  33      6C696361 
  33      74696F6E 
  33      20737461 
  33      72746564 
  34 0072 0000     		.align	2
  35              	.LC5:
  36 0074 25642C20 		.ascii	"%d, \000"
  36      00
  37 0079 000000   		.align	2
  38              	.LC6:
  39 007c 0A417070 		.ascii	"\012Application failed to initialize. Error code: %"
  39      6C696361 
  39      74696F6E 
  39      20666169 
  39      6C656420 
  40 00ac 642E0A00 		.ascii	"d.\012\000"
  41              		.section	.text.ApplicationThread_Entry,"ax",%progbits
  42              		.align	2
  43              		.global	ApplicationThread_Entry
  45              	ApplicationThread_Entry:
  46              	.LFB0:
  47              		.file 1 "../RunApplication.c"
   1:../RunApplication.c **** // Demonstrate USB by enumerating as a composite device - CDC + BulkLoop Interfaces
   2:../RunApplication.c **** //
   3:../RunApplication.c **** // john@usb-by-example.com
   4:../RunApplication.c **** //
   5:../RunApplication.c **** // On power on the CDC interface is looped-back such that characters are just echoed
   6:../RunApplication.c **** // and the UART is connected as the Debug Console
   7:../RunApplication.c **** // Following a "switch" command the Debug Console is connected to the CDC interface
   8:../RunApplication.c **** // Another "switch" will switch it back to the UART
   9:../RunApplication.c **** //
  10:../RunApplication.c **** 
  11:../RunApplication.c **** #include "Application.h"
  12:../RunApplication.c **** 
  13:../RunApplication.c **** extern CyU3PReturnStatus_t InitializeDebugConsole(void);
  14:../RunApplication.c **** extern CyU3PReturnStatus_t InitializeUSB(void);
  15:../RunApplication.c **** extern void CheckStatus(char* StringPtr, CyU3PReturnStatus_t Status);
  16:../RunApplication.c **** extern void BackgroundPrint(uint32_t TimeToWait);
  17:../RunApplication.c **** extern SwitchConsoles(void);
  18:../RunApplication.c **** 
  19:../RunApplication.c **** extern CyU3PEvent DisplayEvent;			// Used to display events
  20:../RunApplication.c **** 
  21:../RunApplication.c **** CyU3PThread ApplicationThread;			// Handle to my Application Thread
  22:../RunApplication.c **** CyBool_t glIsApplicationActive;			// Set true once device is enumerated
  23:../RunApplication.c **** 
  24:../RunApplication.c **** void ApplicationThread_Entry (uint32_t Value)
  25:../RunApplication.c **** {
  48              		.loc 1 25 0
  49              		.cfi_startproc
  50              		@ args = 0, pretend = 0, frame = 16
  51              		@ frame_needed = 1, uses_anonymous_args = 0
  52 0000 00482DE9 		stmfd	sp!, {fp, lr}
  53              	.LCFI0:
  54              		.cfi_def_cfa_offset 8
  55              		.cfi_offset 11, -8
  56              		.cfi_offset 14, -4
  57 0004 04B08DE2 		add	fp, sp, #4
  58              	.LCFI1:
  59              		.cfi_def_cfa 11, 4
  60 0008 10D04DE2 		sub	sp, sp, #16
  61 000c 10000BE5 		str	r0, [fp, #-16]
  26:../RunApplication.c **** 	int32_t Seconds = 0;
  62              		.loc 1 26 0
  63 0010 0030A0E3 		mov	r3, #0
  64 0014 08300BE5 		str	r3, [fp, #-8]
  27:../RunApplication.c ****     CyU3PReturnStatus_t Status;
  28:../RunApplication.c **** 
  29:../RunApplication.c ****     Status = InitializeDebugConsole();
  65              		.loc 1 29 0
  66 0018 FEFFFFEB 		bl	InitializeDebugConsole
  67 001c 0C000BE5 		str	r0, [fp, #-12]
  30:../RunApplication.c ****     CheckStatus("Debug Console Initialized", Status);
  68              		.loc 1 30 0
  69 0020 C4009FE5 		ldr	r0, .L7
  70 0024 0C101BE5 		ldr	r1, [fp, #-12]
  71 0028 FEFFFFEB 		bl	CheckStatus
  31:../RunApplication.c **** 
  32:../RunApplication.c ****     // Create an Event Group that Callbacks can use to signal events to a Background DebugPrint
  33:../RunApplication.c ****     Status = CyU3PEventCreate(&DisplayEvent);
  72              		.loc 1 33 0
  73 002c BC009FE5 		ldr	r0, .L7+4
  74 0030 0010A0E3 		mov	r1, #0
  75 0034 2820A0E3 		mov	r2, #40
  76 0038 FEFFFFEB 		bl	_txe_event_flags_create
  77 003c 0C000BE5 		str	r0, [fp, #-12]
  34:../RunApplication.c ****     CheckStatus("Create Event", Status);
  78              		.loc 1 34 0
  79 0040 AC009FE5 		ldr	r0, .L7+8
  80 0044 0C101BE5 		ldr	r1, [fp, #-12]
  81 0048 FEFFFFEB 		bl	CheckStatus
  35:../RunApplication.c **** 
  36:../RunApplication.c ****     // Give me time to start up my Ellisys Explorer
  37:../RunApplication.c ****     DebugPrint(4, "\n\n\nStart Ellisys NOW\n");
  82              		.loc 1 37 0
  83 004c 0400A0E3 		mov	r0, #4
  84 0050 A0109FE5 		ldr	r1, .L7+12
  85 0054 FEFFFFEB 		bl	CyU3PDebugPrint
  38:../RunApplication.c ****     CyU3PThreadSleep(10000);
  86              		.loc 1 38 0
  87 0058 9C009FE5 		ldr	r0, .L7+16
  88 005c FEFFFFEB 		bl	_tx_thread_sleep
  39:../RunApplication.c **** 
  40:../RunApplication.c ****     Status = InitializeUSB();
  89              		.loc 1 40 0
  90 0060 FEFFFFEB 		bl	InitializeUSB
  91 0064 0C000BE5 		str	r0, [fp, #-12]
  41:../RunApplication.c ****     CheckStatus("USB Initialized", Status);
  92              		.loc 1 41 0
  93 0068 90009FE5 		ldr	r0, .L7+20
  94 006c 0C101BE5 		ldr	r1, [fp, #-12]
  95 0070 FEFFFFEB 		bl	CheckStatus
  42:../RunApplication.c **** 
  43:../RunApplication.c ****     // Wait for the USB connection to be up
  44:../RunApplication.c ****     while (!glIsApplicationActive) BackgroundPrint(10);
  96              		.loc 1 44 0
  97 0074 010000EA 		b	.L2
  98              	.L3:
  99              		.loc 1 44 0 is_stmt 0 discriminator 2
 100 0078 0A00A0E3 		mov	r0, #10
 101 007c FEFFFFEB 		bl	BackgroundPrint
 102              	.L2:
 103              		.loc 1 44 0 discriminator 1
 104 0080 7C309FE5 		ldr	r3, .L7+24
 105 0084 003093E5 		ldr	r3, [r3]
 106 0088 000053E3 		cmp	r3, #0
 107 008c F9FFFF0A 		beq	.L3
  45:../RunApplication.c **** 
  46:../RunApplication.c ****     if (Status == CY_U3P_SUCCESS)
 108              		.loc 1 46 0 is_stmt 1
 109 0090 0C301BE5 		ldr	r3, [fp, #-12]
 110 0094 000053E3 		cmp	r3, #0
 111 0098 0E00001A 		bne	.L4
  47:../RunApplication.c ****     {
  48:../RunApplication.c ****     	DebugPrint(4, "\nApplication started with %d\n", Value);
 112              		.loc 1 48 0
 113 009c 0400A0E3 		mov	r0, #4
 114 00a0 60109FE5 		ldr	r1, .L7+28
 115 00a4 10201BE5 		ldr	r2, [fp, #-16]
 116 00a8 FEFFFFEB 		bl	CyU3PDebugPrint
  49:../RunApplication.c ****     	SwitchConsoles();
 117              		.loc 1 49 0
 118 00ac FEFFFFEB 		bl	SwitchConsoles
 119              	.L5:
  50:../RunApplication.c ****     	// Now run forever
  51:../RunApplication.c ****     	while (1)
  52:../RunApplication.c ****     	{
  53:../RunApplication.c ****         	{
  54:../RunApplication.c ****         		DebugPrint(4, "%d, ", Seconds++);
 120              		.loc 1 54 0 discriminator 1
 121 00b0 08301BE5 		ldr	r3, [fp, #-8]
 122 00b4 012083E2 		add	r2, r3, #1
 123 00b8 08200BE5 		str	r2, [fp, #-8]
 124 00bc 0400A0E3 		mov	r0, #4
 125 00c0 44109FE5 		ldr	r1, .L7+32
 126 00c4 0320A0E1 		mov	r2, r3
 127 00c8 FEFFFFEB 		bl	CyU3PDebugPrint
  55:../RunApplication.c ****     			BackgroundPrint(1000);				// Do something useful while waiting
 128              		.loc 1 55 0 discriminator 1
 129 00cc FA0FA0E3 		mov	r0, #1000
 130 00d0 FEFFFFEB 		bl	BackgroundPrint
  56:../RunApplication.c ****     		}
  57:../RunApplication.c **** 		}
 131              		.loc 1 57 0 discriminator 1
 132 00d4 F5FFFFEA 		b	.L5
 133              	.L4:
  58:../RunApplication.c ****     }
  59:../RunApplication.c ****     DebugPrint(4, "\nApplication failed to initialize. Error code: %d.\n", Status);
 134              		.loc 1 59 0
 135 00d8 0400A0E3 		mov	r0, #4
 136 00dc 2C109FE5 		ldr	r1, .L7+36
 137 00e0 0C201BE5 		ldr	r2, [fp, #-12]
 138 00e4 FEFFFFEB 		bl	CyU3PDebugPrint
 139              	.L6:
  60:../RunApplication.c ****     while (1);		// Hang here
 140              		.loc 1 60 0 discriminator 1
 141 00e8 FEFFFFEA 		b	.L6
 142              	.L8:
 143              		.align	2
 144              	.L7:
 145 00ec 00000000 		.word	.LC0
 146 00f0 00000000 		.word	DisplayEvent
 147 00f4 1C000000 		.word	.LC1
 148 00f8 2C000000 		.word	.LC2
 149 00fc 10270000 		.word	10000
 150 0100 44000000 		.word	.LC3
 151 0104 00000000 		.word	glIsApplicationActive
 152 0108 54000000 		.word	.LC4
 153 010c 74000000 		.word	.LC5
 154 0110 7C000000 		.word	.LC6
 155              		.cfi_endproc
 156              	.LFE0:
 158              		.section	.rodata
 159              		.align	2
 160              	.LC7:
 161 00b0 31313A43 		.ascii	"11:CDC_BulkLoop\000"
 161      44435F42 
 161      756C6B4C 
 161      6F6F7000 
 162              		.section	.text.CyFxApplicationDefine,"ax",%progbits
 163              		.align	2
 164              		.global	CyFxApplicationDefine
 166              	CyFxApplicationDefine:
 167              	.LFB1:
  61:../RunApplication.c **** }
  62:../RunApplication.c **** 
  63:../RunApplication.c **** // ApplicationDefine function called by RTOS to startup the application threads
  64:../RunApplication.c **** void CyFxApplicationDefine(void)
  65:../RunApplication.c **** {
 168              		.loc 1 65 0
 169              		.cfi_startproc
 170              		@ args = 0, pretend = 0, frame = 8
 171              		@ frame_needed = 1, uses_anonymous_args = 0
 172 0000 00482DE9 		stmfd	sp!, {fp, lr}
 173              	.LCFI2:
 174              		.cfi_def_cfa_offset 8
 175              		.cfi_offset 11, -8
 176              		.cfi_offset 14, -4
 177 0004 04B08DE2 		add	fp, sp, #4
 178              	.LCFI3:
 179              		.cfi_def_cfa 11, 4
 180 0008 28D04DE2 		sub	sp, sp, #40
  66:../RunApplication.c ****     void *StackPtr;
  67:../RunApplication.c ****     uint32_t Status;
  68:../RunApplication.c **** 
  69:../RunApplication.c ****     StackPtr = CyU3PMemAlloc(APPLICATION_THREAD_STACK);
 181              		.loc 1 69 0
 182 000c 010AA0E3 		mov	r0, #4096
 183 0010 FEFFFFEB 		bl	CyU3PMemAlloc
 184 0014 08000BE5 		str	r0, [fp, #-8]
  70:../RunApplication.c ****     Status = CyU3PThreadCreate (&ApplicationThread, // Handle to my Application Thread
 185              		.loc 1 70 0
 186 0018 08301BE5 		ldr	r3, [fp, #-8]
 187 001c 00308DE5 		str	r3, [sp]
 188 0020 013AA0E3 		mov	r3, #4096
 189 0024 04308DE5 		str	r3, [sp, #4]
 190 0028 0830A0E3 		mov	r3, #8
 191 002c 08308DE5 		str	r3, [sp, #8]
 192 0030 0830A0E3 		mov	r3, #8
 193 0034 0C308DE5 		str	r3, [sp, #12]
 194 0038 0030A0E3 		mov	r3, #0
 195 003c 10308DE5 		str	r3, [sp, #16]
 196 0040 0130A0E3 		mov	r3, #1
 197 0044 14308DE5 		str	r3, [sp, #20]
 198 0048 A830A0E3 		mov	r3, #168
 199 004c 18308DE5 		str	r3, [sp, #24]
 200 0050 28009FE5 		ldr	r0, .L12
 201 0054 28109FE5 		ldr	r1, .L12+4
 202 0058 28209FE5 		ldr	r2, .L12+8
 203 005c 2A30A0E3 		mov	r3, #42
 204 0060 FEFFFFEB 		bl	_txe_thread_create
 205 0064 0C000BE5 		str	r0, [fp, #-12]
  71:../RunApplication.c ****             "11:CDC_BulkLoop",                		// Thread ID and name
  72:../RunApplication.c ****             ApplicationThread_Entry,     			// Thread entry function
  73:../RunApplication.c ****             42,                             		// Parameter passed to Thread
  74:../RunApplication.c ****             StackPtr,                       		// Pointer to the allocated thread stack
  75:../RunApplication.c ****             APPLICATION_THREAD_STACK,               // Allocated thread stack size
  76:../RunApplication.c ****             APPLICATION_THREAD_PRIORITY,            // Thread priority
  77:../RunApplication.c ****             APPLICATION_THREAD_PRIORITY,            // = Thread priority so no preemption
  78:../RunApplication.c ****             CYU3P_NO_TIME_SLICE,            		// Time slice no supported
  79:../RunApplication.c ****             CYU3P_AUTO_START                		// Start the thread immediately
  80:../RunApplication.c ****             );
  81:../RunApplication.c **** 
  82:../RunApplication.c ****     if (Status != CY_U3P_SUCCESS)
 206              		.loc 1 82 0
 207 0068 0C301BE5 		ldr	r3, [fp, #-12]
 208 006c 000053E3 		cmp	r3, #0
 209 0070 0000000A 		beq	.L9
 210              	.L11:
  83:../RunApplication.c ****     {
  84:../RunApplication.c ****         /* Thread creation failed with the Status = error code */
  85:../RunApplication.c **** 
  86:../RunApplication.c ****         /* Add custom recovery or debug actions here */
  87:../RunApplication.c **** 
  88:../RunApplication.c ****         /* Application cannot continue. Loop indefinitely */
  89:../RunApplication.c ****         while(1);
 211              		.loc 1 89 0 discriminator 1
 212 0074 FEFFFFEA 		b	.L11
 213              	.L9:
  90:../RunApplication.c ****     }
  91:../RunApplication.c **** }
 214              		.loc 1 91 0
 215 0078 04D04BE2 		sub	sp, fp, #4
 216              		@ sp needed
 217 007c 0088BDE8 		ldmfd	sp!, {fp, pc}
 218              	.L13:
 219              		.align	2
 220              	.L12:
 221 0080 00000000 		.word	ApplicationThread
 222 0084 B0000000 		.word	.LC7
 223 0088 00000000 		.word	ApplicationThread_Entry
 224              		.cfi_endproc
 225              	.LFE1:
 227              		.text
 228              	.Letext0:
 229              		.file 2 "c:\\program files (x86)\\cypress\\ez-usb fx3 sdk\\1.3\\arm gcc\\arm-none-eabi\\include\\s
 230              		.file 3 "C:\\Program Files (x86)\\Cypress\\EZ-USB FX3 SDK\\1.3\\/firmware/u3p_firmware/inc/cyu3typ
 231              		.file 4 "C:\\Program Files (x86)\\Cypress\\EZ-USB FX3 SDK\\1.3\\/firmware/u3p_firmware/inc/tx_port
 232              		.file 5 "C:\\Program Files (x86)\\Cypress\\EZ-USB FX3 SDK\\1.3\\/firmware/u3p_firmware/inc/tx_api.
 233              		.file 6 "C:\\Program Files (x86)\\Cypress\\EZ-USB FX3 SDK\\1.3\\/firmware/u3p_firmware/inc/cyu3dma
 234              		.file 7 "C:\\Program Files (x86)\\Cypress\\EZ-USB FX3 SDK\\1.3\\/firmware/u3p_firmware/inc/cyu3err