   1              		.cpu arm926ej-s
   2              		.fpu softvfp
   3              		.eabi_attribute 20, 1
   4              		.eabi_attribute 21, 1
   5              		.eabi_attribute 23, 3
   6              		.eabi_attribute 24, 1
   7              		.eabi_attribute 25, 1
   8              		.eabi_attribute 26, 1
   9              		.eabi_attribute 30, 6
  10              		.eabi_attribute 18, 4
  11              		.file	"USB_Descriptors.c"
  19              	.Ltext0:
  20              		.cfi_sections	.debug_frame
  21              		.global	CyFxUSB30DeviceDscr
  22              		.section	.rodata.CyFxUSB30DeviceDscr,"a",%progbits
  23              		.align	5
  26              	CyFxUSB30DeviceDscr:
  27 0000 12       		.byte	18
  28 0001 01       		.byte	1
  29 0002 00       		.byte	0
  30 0003 03       		.byte	3
  31 0004 00       		.byte	0
  32 0005 00       		.byte	0
  33 0006 00       		.byte	0
  34 0007 09       		.byte	9
  35 0008 42       		.byte	66
  36 0009 42       		.byte	66
  37 000a 02       		.byte	2
  38 000b EC       		.byte	-20
  39 000c 00       		.byte	0
  40 000d 00       		.byte	0
  41 000e 01       		.byte	1
  42 000f 02       		.byte	2
  43 0010 00       		.byte	0
  44 0011 01       		.byte	1
  45              		.global	CyFxUSB20DeviceDscr
  46 0012 00000000 		.section	.rodata.CyFxUSB20DeviceDscr,"a",%progbits
  46      00000000 
  46      00000000 
  46      0000
  47              		.align	5
  50              	CyFxUSB20DeviceDscr:
  51 0000 12       		.byte	18
  52 0001 01       		.byte	1
  53 0002 10       		.byte	16
  54 0003 02       		.byte	2
  55 0004 00       		.byte	0
  56 0005 00       		.byte	0
  57 0006 00       		.byte	0
  58 0007 40       		.byte	64
  59 0008 42       		.byte	66
  60 0009 42       		.byte	66
  61 000a 01       		.byte	1
  62 000b EC       		.byte	-20
  63 000c 00       		.byte	0
  64 000d 00       		.byte	0
  65 000e 01       		.byte	1
  66 000f 02       		.byte	2
  67 0010 00       		.byte	0
  68 0011 01       		.byte	1
  69              		.global	CyFxUSBBOSDscr
  70 0012 00000000 		.section	.rodata.CyFxUSBBOSDscr,"a",%progbits
  70      00000000 
  70      00000000 
  70      0000
  71              		.align	5
  74              	CyFxUSBBOSDscr:
  75 0000 05       		.byte	5
  76 0001 0F       		.byte	15
  77 0002 16       		.byte	22
  78 0003 00       		.byte	0
  79 0004 02       		.byte	2
  80 0005 07       		.byte	7
  81 0006 10       		.byte	16
  82 0007 02       		.byte	2
  83 0008 02       		.byte	2
  84 0009 00       		.byte	0
  85 000a 00       		.byte	0
  86 000b 00       		.byte	0
  87 000c 0A       		.byte	10
  88 000d 10       		.byte	16
  89 000e 03       		.byte	3
  90 000f 00       		.byte	0
  91 0010 0E       		.byte	14
  92 0011 00       		.byte	0
  93 0012 03       		.byte	3
  94 0013 00       		.byte	0
  95 0014 00       		.byte	0
  96 0015 00       		.byte	0
  97              		.global	CyFxUSBDeviceQualDscr
  98 0016 00000000 		.section	.rodata.CyFxUSBDeviceQualDscr,"a",%progbits
  98      00000000 
  98      0000
  99              		.align	5
 102              	CyFxUSBDeviceQualDscr:
 103 0000 0A       		.byte	10
 104 0001 06       		.byte	6
 105 0002 00       		.byte	0
 106 0003 02       		.byte	2
 107 0004 00       		.byte	0
 108 0005 00       		.byte	0
 109 0006 00       		.byte	0
 110 0007 40       		.byte	64
 111 0008 01       		.byte	1
 112 0009 00       		.byte	0
 113              		.global	ReportDescriptor
 114 000a 00000000 		.section	.rodata.ReportDescriptor,"a",%progbits
 114      00000000 
 114      00000000 
 114      00000000 
 114      00000000 
 115              		.align	5
 118              	ReportDescriptor:
 119 0000 05       		.byte	5
 120 0001 01       		.byte	1
 121 0002 09       		.byte	9
 122 0003 06       		.byte	6
 123 0004 A1       		.byte	-95
 124 0005 01       		.byte	1
 125 0006 05       		.byte	5
 126 0007 07       		.byte	7
 127 0008 19       		.byte	25
 128 0009 E0       		.byte	-32
 129 000a 29       		.byte	41
 130 000b E7       		.byte	-25
 131 000c 15       		.byte	21
 132 000d 00       		.byte	0
 133 000e 25       		.byte	37
 134 000f 01       		.byte	1
 135 0010 75       		.byte	117
 136 0011 01       		.byte	1
 137 0012 95       		.byte	-107
 138 0013 08       		.byte	8
 139 0014 81       		.byte	-127
 140 0015 02       		.byte	2
 141 0016 81       		.byte	-127
 142 0017 01       		.byte	1
 143 0018 75       		.byte	117
 144 0019 08       		.byte	8
 145 001a 95       		.byte	-107
 146 001b 06       		.byte	6
 147 001c 19       		.byte	25
 148 001d 00       		.byte	0
 149 001e 29       		.byte	41
 150 001f 38       		.byte	56
 151 0020 15       		.byte	21
 152 0021 00       		.byte	0
 153 0022 25       		.byte	37
 154 0023 38       		.byte	56
 155 0024 81       		.byte	-127
 156 0025 00       		.byte	0
 157 0026 05       		.byte	5
 158 0027 08       		.byte	8
 159 0028 19       		.byte	25
 160 0029 01       		.byte	1
 161 002a 29       		.byte	41
 162 002b 05       		.byte	5
 163 002c 15       		.byte	21
 164 002d 00       		.byte	0
 165 002e 25       		.byte	37
 166 002f 01       		.byte	1
 167 0030 75       		.byte	117
 168 0031 01       		.byte	1
 169 0032 95       		.byte	-107
 170 0033 05       		.byte	5
 171 0034 91       		.byte	-111
 172 0035 02       		.byte	2
 173 0036 95       		.byte	-107
 174 0037 03       		.byte	3
 175 0038 91       		.byte	-111
 176 0039 01       		.byte	1
 177 003a C0       		.byte	-64
 178              		.global	CyFxUSBSSConfigDscr
 179 003b 00000000 		.section	.rodata.CyFxUSBSSConfigDscr,"a",%progbits
 179      00
 180              		.align	5
 183              	CyFxUSBSSConfigDscr:
 184 0000 09       		.byte	9
 185 0001 02       		.byte	2
 186 0002 28       		.byte	40
 187 0003 00       		.byte	0
 188 0004 01       		.byte	1
 189 0005 01       		.byte	1
 190 0006 00       		.byte	0
 191 0007 80       		.byte	-128
 192 0008 0C       		.byte	12
 193 0009 09       		.byte	9
 194 000a 04       		.byte	4
 195 000b 00       		.byte	0
 196 000c 00       		.byte	0
 197 000d 01       		.byte	1
 198 000e 03       		.byte	3
 199 000f 01       		.byte	1
 200 0010 01       		.byte	1
 201 0011 00       		.byte	0
 202 0012 09       		.byte	9
 203 0013 21       		.byte	33
 204 0014 00       		.byte	0
 205 0015 01       		.byte	1
 206 0016 00       		.byte	0
 207 0017 01       		.byte	1
 208 0018 22       		.byte	34
 209 0019 3B       		.byte	59
 210 001a 00       		.byte	0
 211 001b 07       		.byte	7
 212 001c 05       		.byte	5
 213 001d 82       		.byte	-126
 214 001e 03       		.byte	3
 215 001f 08       		.byte	8
 216 0020 00       		.byte	0
 217 0021 08       		.byte	8
 218 0022 06       		.byte	6
 219 0023 30       		.byte	48
 220 0024 01       		.byte	1
 221 0025 00       		.byte	0
 222 0026 08       		.byte	8
 223 0027 00       		.byte	0
 224              		.global	CyFxUSBHSFSConfigDscr
 225 0028 00000000 		.section	.rodata.CyFxUSBHSFSConfigDscr,"a",%progbits
 225      00000000 
 225      00000000 
 225      00000000 
 225      00000000 
 226              		.align	5
 229              	CyFxUSBHSFSConfigDscr:
 230 0000 09       		.byte	9
 231 0001 02       		.byte	2
 232 0002 22       		.byte	34
 233 0003 00       		.byte	0
 234 0004 01       		.byte	1
 235 0005 01       		.byte	1
 236 0006 00       		.byte	0
 237 0007 80       		.byte	-128
 238 0008 32       		.byte	50
 239 0009 09       		.byte	9
 240 000a 04       		.byte	4
 241 000b 00       		.byte	0
 242 000c 00       		.byte	0
 243 000d 01       		.byte	1
 244 000e 03       		.byte	3
 245 000f 01       		.byte	1
 246 0010 01       		.byte	1
 247 0011 00       		.byte	0
 248 0012 09       		.byte	9
 249 0013 21       		.byte	33
 250 0014 00       		.byte	0
 251 0015 01       		.byte	1
 252 0016 00       		.byte	0
 253 0017 01       		.byte	1
 254 0018 22       		.byte	34
 255 0019 3B       		.byte	59
 256 001a 00       		.byte	0
 257 001b 07       		.byte	7
 258 001c 05       		.byte	5
 259 001d 82       		.byte	-126
 260 001e 03       		.byte	3
 261 001f 08       		.byte	8
 262 0020 00       		.byte	0
 263 0021 08       		.byte	8
 264              		.global	CyFxUSBStringLangIDDscr
 265 0022 00000000 		.section	.rodata.CyFxUSBStringLangIDDscr,"a",%progbits
 265      00000000 
 265      00000000 
 265      00000000 
 265      00000000 
 266              		.align	5
 269              	CyFxUSBStringLangIDDscr:
 270 0000 04       		.byte	4
 271 0001 03       		.byte	3
 272 0002 09       		.byte	9
 273 0003 04       		.byte	4
 274              		.global	CyFxUSBManufactureDscr
 275 0004 00000000 		.section	.rodata.CyFxUSBManufactureDscr,"a",%progbits
 275      00000000 
 275      00000000 
 275      00000000 
 275      00000000 
 276              		.align	5
 279              	CyFxUSBManufactureDscr:
 280 0000 2C       		.byte	44
 281 0001 03       		.byte	3
 282 0002 55       		.byte	85
 283 0003 00       		.byte	0
 284 0004 53       		.byte	83
 285 0005 00       		.byte	0
 286 0006 42       		.byte	66
 287 0007 00       		.byte	0
 288 0008 20       		.byte	32
 289 0009 00       		.byte	0
 290 000a 44       		.byte	68
 291 000b 00       		.byte	0
 292 000c 65       		.byte	101
 293 000d 00       		.byte	0
 294 000e 73       		.byte	115
 295 000f 00       		.byte	0
 296 0010 69       		.byte	105
 297 0011 00       		.byte	0
 298 0012 67       		.byte	103
 299 0013 00       		.byte	0
 300 0014 6E       		.byte	110
 301 0015 00       		.byte	0
 302 0016 20       		.byte	32
 303 0017 00       		.byte	0
 304 0018 42       		.byte	66
 305 0019 00       		.byte	0
 306 001a 79       		.byte	121
 307 001b 00       		.byte	0
 308 001c 20       		.byte	32
 309 001d 00       		.byte	0
 310 001e 45       		.byte	69
 311 001f 00       		.byte	0
 312 0020 78       		.byte	120
 313 0021 00       		.byte	0
 314 0022 61       		.byte	97
 315 0023 00       		.byte	0
 316 0024 6D       		.byte	109
 317 0025 00       		.byte	0
 318 0026 70       		.byte	112
 319 0027 00       		.byte	0
 320 0028 6C       		.byte	108
 321 0029 00       		.byte	0
 322 002a 65       		.byte	101
 323 002b 00       		.byte	0
 324              		.global	CyFxUSBProductDscr
 325 002c 00000000 		.section	.rodata.CyFxUSBProductDscr,"a",%progbits
 325      00000000 
 325      00000000 
 325      00000000 
 325      00000000 
 326              		.align	5
 329              	CyFxUSBProductDscr:
 330 0000 12       		.byte	18
 331 0001 03       		.byte	3
 332 0002 4B       		.byte	75
 333 0003 00       		.byte	0
 334 0004 65       		.byte	101
 335 0005 00       		.byte	0
 336 0006 79       		.byte	121
 337 0007 00       		.byte	0
 338 0008 62       		.byte	98
 339 0009 00       		.byte	0
 340 000a 6F       		.byte	111
 341 000b 00       		.byte	0
 342 000c 61       		.byte	97
 343 000d 00       		.byte	0
 344 000e 72       		.byte	114
 345 000f 00       		.byte	0
 346 0010 64       		.byte	100
 347 0011 00       		.byte	0
 348 0012 00000000 		.section	.rodata
 348      00000000 
 348      00000000 
 348      0000
 349              		.align	2
 350              	.LC0:
 351 0000 5345545F 		.ascii	"SET_SS_DEVICE_DESCR\000"
 351      53535F44 
 351      45564943 
 351      455F4445 
 351      53435200 
 352              		.align	2
 353              	.LC1:
 354 0014 5345545F 		.ascii	"SET_HS_DEVICE_DESCR\000"
 354      48535F44 
 354      45564943 
 354      455F4445 
 354      53435200 
 355              		.align	2
 356              	.LC2:
 357 0028 5345545F 		.ascii	"SET_SS_BOS_DESCR\000"
 357      53535F42 
 357      4F535F44 
 357      45534352 
 357      00
 358 0039 000000   		.align	2
 359              	.LC3:
 360 003c 5345545F 		.ascii	"SET_DEVQUAL_DESCR\000"
 360      44455651 
 360      55414C5F 
 360      44455343 
 360      5200
 361 004e 0000     		.align	2
 362              	.LC4:
 363 0050 5345545F 		.ascii	"SET_SS_CONFIG_DESCR\000"
 363      53535F43 
 363      4F4E4649 
 363      475F4445 
 363      53435200 
 364              		.align	2
 365              	.LC5:
 366 0064 5345545F 		.ascii	"SET_HS_CONFIG_DESCR\000"
 366      48535F43 
 366      4F4E4649 
 366      475F4445 
 366      53435200 
 367              		.align	2
 368              	.LC6:
 369 0078 5345545F 		.ascii	"SET_FS_CONFIG_DESCR\000"
 369      46535F43 
 369      4F4E4649 
 369      475F4445 
 369      53435200 
 370              		.align	2
 371              	.LC7:
 372 008c 5345545F 		.ascii	"SET_STRING0_DESCR\000"
 372      53545249 
 372      4E47305F 
 372      44455343 
 372      5200
 373 009e 0000     		.align	2
 374              	.LC8:
 375 00a0 5345545F 		.ascii	"SET_STRING1_DESCR\000"
 375      53545249 
 375      4E47315F 
 375      44455343 
 375      5200
 376 00b2 0000     		.align	2
 377              	.LC9:
 378 00b4 5345545F 		.ascii	"SET_STRING2_DESCR\000"
 378      53545249 
 378      4E47325F 
 378      44455343 
 378      5200
 379 00c6 0000     		.section	.text.SetUSBdescriptors,"ax",%progbits
 380              		.align	2
 381              		.global	SetUSBdescriptors
 383              	SetUSBdescriptors:
 384              	.LFB0:
 385              		.file 1 "../USB_Descriptors.c"
   1:../USB_Descriptors.c **** /*
   2:../USB_Descriptors.c ****  * KeyboardDescriptors.c
   3:../USB_Descriptors.c ****  *
   4:../USB_Descriptors.c ****  *  Created on: Feb 17, 2014
   5:../USB_Descriptors.c ****  *      Author: John
   6:../USB_Descriptors.c ****  */
   7:../USB_Descriptors.c **** 
   8:../USB_Descriptors.c **** // This file contains the USB enumeration descriptors for a Keyboard and a routine that sets them
   9:../USB_Descriptors.c **** // The keyboard supports Boot protocol = 8 byte Interrupt In packets and 1 byte Set Feature Out pac
  10:../USB_Descriptors.c **** // Note that there are alignment requirements for descriptors
  11:../USB_Descriptors.c **** // This uses my VID = 0x4242 - use is permitted for development but NOT as a product
  12:../USB_Descriptors.c **** //
  13:../USB_Descriptors.c **** 
  14:../USB_Descriptors.c **** #include "Application.h"
  15:../USB_Descriptors.c **** 
  16:../USB_Descriptors.c **** extern void CheckStatus(char* StringPtr, CyU3PReturnStatus_t Status);
  17:../USB_Descriptors.c **** 
  18:../USB_Descriptors.c **** /* Standard device descriptor for USB 3.0 */
  19:../USB_Descriptors.c **** const uint8_t CyFxUSB30DeviceDscr[] __attribute__ ((aligned (32))) =
  20:../USB_Descriptors.c **** {
  21:../USB_Descriptors.c ****     0x12,                           /* Descriptor size */
  22:../USB_Descriptors.c ****     CY_U3P_USB_DEVICE_DESCR,        /* Device descriptor type */
  23:../USB_Descriptors.c ****     0x00,0x03,                      /* USB 3.0 */
  24:../USB_Descriptors.c ****     0x00,                           /* Device class */
  25:../USB_Descriptors.c ****     0x00,                           /* Device sub-class */
  26:../USB_Descriptors.c ****     0x00,                           /* Device protocol */
  27:../USB_Descriptors.c ****     0x09,                           /* Maxpacket size for EP0 : 2^9 */
  28:../USB_Descriptors.c ****     0x42,0x42,                      /* Vendor ID */
  29:../USB_Descriptors.c ****     0x02,0xEC,                      /* Product ID */
  30:../USB_Descriptors.c ****     0x00,0x00,                      /* Device release number */
  31:../USB_Descriptors.c ****     0x01,                           /* Manufacturer string index */
  32:../USB_Descriptors.c ****     0x02,                           /* Product string index */
  33:../USB_Descriptors.c ****     0x00,                           /* Serial number string index */
  34:../USB_Descriptors.c ****     0x01                            /* Number of configurations */
  35:../USB_Descriptors.c **** };
  36:../USB_Descriptors.c **** 
  37:../USB_Descriptors.c **** /* Standard device descriptor for USB 2.0 */
  38:../USB_Descriptors.c **** const uint8_t CyFxUSB20DeviceDscr[] __attribute__ ((aligned (32))) =
  39:../USB_Descriptors.c **** {
  40:../USB_Descriptors.c ****     0x12,                           /* Descriptor size */
  41:../USB_Descriptors.c ****     CY_U3P_USB_DEVICE_DESCR,        /* Device descriptor type */
  42:../USB_Descriptors.c ****     0x10,0x02,                      /* USB 2.10 */
  43:../USB_Descriptors.c ****     0x00,                           /* Device class */
  44:../USB_Descriptors.c ****     0x00,                           /* Device sub-class */
  45:../USB_Descriptors.c ****     0x00,                           /* Device protocol */
  46:../USB_Descriptors.c ****     0x40,                           /* Maxpacket size for EP0 : 64 bytes */
  47:../USB_Descriptors.c ****     0x42,0x42,                      /* Vendor ID */
  48:../USB_Descriptors.c ****     0x01,0xEC,                      /* Product ID */
  49:../USB_Descriptors.c ****     0x00,0x00,                      /* Device release number */
  50:../USB_Descriptors.c ****     0x01,                           /* Manufacturer string index */
  51:../USB_Descriptors.c ****     0x02,                           /* Product string index */
  52:../USB_Descriptors.c ****     0x00,                           /* Serial number string index */
  53:../USB_Descriptors.c ****     0x01                            /* Number of configurations */
  54:../USB_Descriptors.c **** };
  55:../USB_Descriptors.c **** 
  56:../USB_Descriptors.c **** /* Binary device object store descriptor */
  57:../USB_Descriptors.c **** const uint8_t CyFxUSBBOSDscr[] __attribute__ ((aligned (32))) =
  58:../USB_Descriptors.c **** {
  59:../USB_Descriptors.c ****     0x05,                           /* Descriptor size */
  60:../USB_Descriptors.c ****     CY_U3P_BOS_DESCR,               /* Device descriptor type */
  61:../USB_Descriptors.c ****     0x16,0x00,                      /* Length of this descriptor and all sub descriptors */
  62:../USB_Descriptors.c ****     0x02,                           /* Number of device capability descriptors */
  63:../USB_Descriptors.c **** 
  64:../USB_Descriptors.c ****     /* USB 2.0 extension */
  65:../USB_Descriptors.c ****     0x07,                           /* Descriptor size */
  66:../USB_Descriptors.c ****     CY_U3P_DEVICE_CAPB_DESCR,       /* Device capability type descriptor */
  67:../USB_Descriptors.c ****     CY_U3P_USB2_EXTN_CAPB_TYPE,     /* USB 2.0 extension capability type */
  68:../USB_Descriptors.c ****     0x02,0x00,0x00,0x00,            /* Supported device level features: LPM support  */
  69:../USB_Descriptors.c **** 
  70:../USB_Descriptors.c ****     /* SuperSpeed device capability */
  71:../USB_Descriptors.c ****     0x0A,                           /* Descriptor size */
  72:../USB_Descriptors.c ****     CY_U3P_DEVICE_CAPB_DESCR,       /* Device capability type descriptor */
  73:../USB_Descriptors.c ****     CY_U3P_SS_USB_CAPB_TYPE,        /* SuperSpeed device capability type */
  74:../USB_Descriptors.c ****     0x00,                           /* Supported device level features  */
  75:../USB_Descriptors.c ****     0x0E,0x00,                      /* Speeds supported by the device : SS, HS and FS */
  76:../USB_Descriptors.c ****     0x03,                           /* Functionality support */
  77:../USB_Descriptors.c ****     0x00,                           /* U1 Device Exit latency */
  78:../USB_Descriptors.c ****     0x00,0x00                       /* U2 Device Exit latency */
  79:../USB_Descriptors.c **** };
  80:../USB_Descriptors.c **** 
  81:../USB_Descriptors.c **** /* Standard device qualifier descriptor */
  82:../USB_Descriptors.c **** const uint8_t CyFxUSBDeviceQualDscr[] __attribute__ ((aligned (32))) =
  83:../USB_Descriptors.c **** {
  84:../USB_Descriptors.c ****     0x0A,                           /* Descriptor size */
  85:../USB_Descriptors.c ****     CY_U3P_USB_DEVQUAL_DESCR,       /* Device qualifier descriptor type */
  86:../USB_Descriptors.c ****     0x00,0x02,                      /* USB 2.0 */
  87:../USB_Descriptors.c ****     0x00,                           /* Device class */
  88:../USB_Descriptors.c ****     0x00,                           /* Device sub-class */
  89:../USB_Descriptors.c ****     0x00,                           /* Device protocol */
  90:../USB_Descriptors.c ****     0x40,                           /* Maxpacket size for EP0 : 64 bytes */
  91:../USB_Descriptors.c ****     0x01,                           /* Number of configurations */
  92:../USB_Descriptors.c ****     0x00                            /* Reserved */
  93:../USB_Descriptors.c **** };
  94:../USB_Descriptors.c **** 
  95:../USB_Descriptors.c **** // Report Descriptor, needed by all interfaces
  96:../USB_Descriptors.c **** const uint8_t ReportDescriptor[] __attribute__ ((aligned (32))) =
  97:../USB_Descriptors.c **** {
  98:../USB_Descriptors.c **** 	5, 1,			// Usage Page(Generic Desktop)
  99:../USB_Descriptors.c **** 	9, 6,			// Usage (Keyboard)
 100:../USB_Descriptors.c **** 	0xA1, 1,		// Collection(Application)
 101:../USB_Descriptors.c **** 	// First declare the 8 byte input report for Keycodes
 102:../USB_Descriptors.c **** 	5, 7,			//	Usage Page(Keycodes)
 103:../USB_Descriptors.c **** 	0x19, 224,		//	Usage Minimum
 104:../USB_Descriptors.c **** 	0x29, 231,		//	Usage Maximum
 105:../USB_Descriptors.c **** 	0x15, 0,		//	Logical Minimum
 106:../USB_Descriptors.c **** 	0x25, 1,		//	Logical Maximum
 107:../USB_Descriptors.c **** 	0x75, 1,		//	Report Size = 1 bit
 108:../USB_Descriptors.c **** 	0x95, 8,		//	Report Count
 109:../USB_Descriptors.c **** 	0x81, 2,		//	Input(DataAbsolute) = Modifier byte
 110:../USB_Descriptors.c **** 	0x81, 1,		//	Input(Constant) = Reserved byte
 111:../USB_Descriptors.c **** 	0x75, 8,		//	Report Size = 1 byte
 112:../USB_Descriptors.c **** 	0x95, 6,		//	Report Count
 113:../USB_Descriptors.c **** // I only support printable ASCII keys (and CR)
 114:../USB_Descriptors.c **** 	0x19, 0,		//	Usage Minimum
 115:../USB_Descriptors.c **** 	0x29, 0x38,		//	Usage Maximum
 116:../USB_Descriptors.c **** 	0x15, 0,		//	Logical Minimum
 117:../USB_Descriptors.c **** 	0x25, 0x38,		//	Logical Maximum
 118:../USB_Descriptors.c **** 	0x81, 0,		//	Input(DataArray) = 6 Keycodes
 119:../USB_Descriptors.c **** 	// Now declare the 5 bit input report for LEDs
 120:../USB_Descriptors.c **** 	5, 8,			//	Usage Page(LEDs)
 121:../USB_Descriptors.c **** 	0x19, 1,		//	Usage Minimum
 122:../USB_Descriptors.c **** 	0x29, 5,		//	Usage Maximum
 123:../USB_Descriptors.c **** 	0x15, 0,		//	Logical Minimum
 124:../USB_Descriptors.c **** 	0x25, 1,		//	Logical Maximum
 125:../USB_Descriptors.c **** 	0x75, 1,		//	Report Size = 1 bit
 126:../USB_Descriptors.c **** 	0x95, 5,		//	Report Count
 127:../USB_Descriptors.c **** 	0x91, 2,		//	Output(DataAbsolute) = LEDs
 128:../USB_Descriptors.c **** 	0x95, 3,		//	Report Count
 129:../USB_Descriptors.c **** 	0x91, 1,		//	Output(Constant) = LED padding to next byte boundary
 130:../USB_Descriptors.c **** 	0xC0			// End Collection
 131:../USB_Descriptors.c **** };
 132:../USB_Descriptors.c **** 
 133:../USB_Descriptors.c **** /* Standard super speed configuration descriptor */
 134:../USB_Descriptors.c **** const uint8_t CyFxUSBSSConfigDscr[] __attribute__ ((aligned (32))) =
 135:../USB_Descriptors.c **** {
 136:../USB_Descriptors.c ****     /* Configuration descriptor */
 137:../USB_Descriptors.c ****     9,                           	/* Descriptor size */
 138:../USB_Descriptors.c ****     CY_U3P_USB_CONFIG_DESCR,        /* Configuration descriptor type */
 139:../USB_Descriptors.c ****     9+9+9+7+6, 0,               	/* Length of this descriptor and all sub descriptors */
 140:../USB_Descriptors.c ****     1,                           	/* Number of interfaces */
 141:../USB_Descriptors.c ****     1,                           	/* Configuration number */
 142:../USB_Descriptors.c ****     0,                           	/* Configuration string index */
 143:../USB_Descriptors.c ****     0x80,                           /* Config characteristics - Bus powered */
 144:../USB_Descriptors.c ****     12,                           	/* Max power consumption of device (in 8mA unit) : 96mA */
 145:../USB_Descriptors.c **** 
 146:../USB_Descriptors.c ****     /* HID Interface descriptor */
 147:../USB_Descriptors.c ****     9,                           	/* Descriptor size */
 148:../USB_Descriptors.c ****     CY_U3P_USB_INTRFC_DESCR,        /* Interface Descriptor type */
 149:../USB_Descriptors.c ****     0,                           	/* Interface number */
 150:../USB_Descriptors.c ****     0,                        	   	/* Alternate setting number */
 151:../USB_Descriptors.c ****     1,                       	    /* Number of end points */
 152:../USB_Descriptors.c ****     3,                     	      	/* HID class */
 153:../USB_Descriptors.c ****     1,                           	/* Boot Interface sub class */
 154:../USB_Descriptors.c ****     1,                           	/* Keyboard protocol code */
 155:../USB_Descriptors.c ****     0,                           	/* Interface descriptor string index */
 156:../USB_Descriptors.c **** 
 157:../USB_Descriptors.c ****     /* HID descriptor */
 158:../USB_Descriptors.c ****     9,                           	/* Descriptor size */
 159:../USB_Descriptors.c ****     CY_U3P_USB_HID_DESCR,        	/* HID Class */
 160:../USB_Descriptors.c ****     0x00, 0x01,                     /* HID Specification Level */
 161:../USB_Descriptors.c ****     0,                           	/* HID Target Country */
 162:../USB_Descriptors.c ****     1,                           	/* Number of HID Class descriptors */
 163:../USB_Descriptors.c ****     CY_U3P_USB_REPORT_DESCR,        /* HID class type */
 164:../USB_Descriptors.c ****     sizeof(ReportDescriptor), 0,    /* Total length of Report Descriptor */
 165:../USB_Descriptors.c **** 
 166:../USB_Descriptors.c ****     /* Endpoint descriptor for consumer EP */
 167:../USB_Descriptors.c ****     7,                           	/* Descriptor size */
 168:../USB_Descriptors.c ****     CY_U3P_USB_ENDPNT_DESCR,        /* Endpoint descriptor type */
 169:../USB_Descriptors.c ****     CY_FX_EP_CONSUMER,              /* Endpoint address and description */
 170:../USB_Descriptors.c ****     CY_U3P_USB_EP_INTR,             /* Interrupt endpoint type */
 171:../USB_Descriptors.c ****     8, 0,                      		/* Max packet size = 8 bytes */
 172:../USB_Descriptors.c ****     8,                           	/* Servicing interval for data transfers */
 173:../USB_Descriptors.c **** 
 174:../USB_Descriptors.c ****     /* Super speed endpoint companion descriptor for consumer EP */
 175:../USB_Descriptors.c ****     6,                           	/* Descriptor size */
 176:../USB_Descriptors.c ****     CY_U3P_SS_EP_COMPN_DESCR,       /* SS endpoint companion descriptor type */
 177:../USB_Descriptors.c ****     1,    							/* Max no. of packets in a burst(0-15) - 0: burst 1 packet at a time */
 178:../USB_Descriptors.c ****     0,                           	/* Max streams for interrupt endpoint = 0 (No streams) */
 179:../USB_Descriptors.c ****     8, 0,                      		/* Service interval for the endpoint */
 180:../USB_Descriptors.c **** 
 181:../USB_Descriptors.c **** };
 182:../USB_Descriptors.c **** 
 183:../USB_Descriptors.c **** /* Standard high speed configuration descriptor */
 184:../USB_Descriptors.c **** // AND
 185:../USB_Descriptors.c **** /* Standard full speed configuration descriptor */
 186:../USB_Descriptors.c **** const uint8_t CyFxUSBHSFSConfigDscr[] __attribute__ ((aligned (32))) =
 187:../USB_Descriptors.c **** {
 188:../USB_Descriptors.c ****     /* Configuration descriptor */
 189:../USB_Descriptors.c ****     9,                           	/* Descriptor size */
 190:../USB_Descriptors.c ****     CY_U3P_USB_CONFIG_DESCR,        /* Configuration descriptor type */
 191:../USB_Descriptors.c ****     9+9+9+7, 0,                     /* Length of this descriptor and all sub descriptors */
 192:../USB_Descriptors.c ****     1,                           	/* Number of interfaces */
 193:../USB_Descriptors.c ****     1,                           	/* Configuration number */
 194:../USB_Descriptors.c ****     0,                           	/* Configuration string index */
 195:../USB_Descriptors.c ****     0x80,                           /* Config characteristics - bus powered */
 196:../USB_Descriptors.c ****     50,                           	/* Max power consumption of device (in 2mA unit) : 100mA */
 197:../USB_Descriptors.c **** 
 198:../USB_Descriptors.c ****     /* HID Interface descriptor */
 199:../USB_Descriptors.c ****     9,                           	/* Descriptor size */
 200:../USB_Descriptors.c ****     CY_U3P_USB_INTRFC_DESCR,        /* Interface Descriptor type */
 201:../USB_Descriptors.c ****     0,                           	/* Interface number */
 202:../USB_Descriptors.c ****     0,                        	   	/* Alternate setting number */
 203:../USB_Descriptors.c ****     1,                       	    /* Number of end points */
 204:../USB_Descriptors.c ****     3,                     	      	/* HID class */
 205:../USB_Descriptors.c ****     1,                           	/* Boot Interface sub class */
 206:../USB_Descriptors.c ****     1,                           	/* Keyboard protocol code */
 207:../USB_Descriptors.c ****     0,                           	/* Interface descriptor string index */
 208:../USB_Descriptors.c **** 
 209:../USB_Descriptors.c ****     /* HID descriptor */
 210:../USB_Descriptors.c ****     9,                           	/* Descriptor size */
 211:../USB_Descriptors.c ****     CY_U3P_USB_HID_DESCR,        	/* HID Class */
 212:../USB_Descriptors.c ****     0x00, 0x01,                     /* HID Specification Level */
 213:../USB_Descriptors.c ****     0,                           	/* HID Target Country */
 214:../USB_Descriptors.c ****     1,                           	/* Number of HID Class descriptors */
 215:../USB_Descriptors.c ****     CY_U3P_USB_REPORT_DESCR,        /* HID class type */
 216:../USB_Descriptors.c ****     sizeof(ReportDescriptor), 0,    /* Total length of Report Descriptor */
 217:../USB_Descriptors.c **** 
 218:../USB_Descriptors.c ****     /* Endpoint descriptor for consumer EP */
 219:../USB_Descriptors.c ****     7,                           	/* Descriptor size */
 220:../USB_Descriptors.c ****     CY_U3P_USB_ENDPNT_DESCR,        /* Endpoint descriptor type */
 221:../USB_Descriptors.c ****     CY_FX_EP_CONSUMER,              /* Endpoint address and description */
 222:../USB_Descriptors.c ****     CY_U3P_USB_EP_INTR,             /* Interrupt endpoint type */
 223:../USB_Descriptors.c ****     8, 0,                      		/* Max packet size = 8 bytes */
 224:../USB_Descriptors.c ****     8,                           	/* Servicing interval for data transfers */
 225:../USB_Descriptors.c ****  };
 226:../USB_Descriptors.c **** 
 227:../USB_Descriptors.c **** 
 228:../USB_Descriptors.c **** /* Standard language ID string descriptor */
 229:../USB_Descriptors.c **** const uint8_t CyFxUSBStringLangIDDscr[] __attribute__ ((aligned (32))) =
 230:../USB_Descriptors.c **** {
 231:../USB_Descriptors.c ****     0x04,                           /* Descriptor size */
 232:../USB_Descriptors.c ****     CY_U3P_USB_STRING_DESCR,        /* Device descriptor type */
 233:../USB_Descriptors.c ****     0x09,0x04                       /* Language ID supported */
 234:../USB_Descriptors.c **** };
 235:../USB_Descriptors.c **** 
 236:../USB_Descriptors.c **** /* Standard manufacturer string descriptor */
 237:../USB_Descriptors.c **** const uint8_t CyFxUSBManufactureDscr[] __attribute__ ((aligned (32))) =
 238:../USB_Descriptors.c **** {
 239:../USB_Descriptors.c ****     44,                             /* Descriptor size */
 240:../USB_Descriptors.c ****     CY_U3P_USB_STRING_DESCR,        /* Device descriptor type */
 241:../USB_Descriptors.c ****     'U',0,'S',0,'B',0,' ',0,'D',0,'e',0,'s',0,'i',0,'g',0,'n',0,' ',0,
 242:../USB_Descriptors.c ****     'B',0,'y',0,' ',0,'E',0,'x',0,'a',0,'m',0,'p',0,'l',0,'e',0
 243:../USB_Descriptors.c **** };
 244:../USB_Descriptors.c **** 
 245:../USB_Descriptors.c **** /* Standard product string descriptor */
 246:../USB_Descriptors.c **** const uint8_t CyFxUSBProductDscr[] __attribute__ ((aligned (32))) =
 247:../USB_Descriptors.c **** {
 248:../USB_Descriptors.c ****     18,                           	/* Descriptor size */
 249:../USB_Descriptors.c ****     CY_U3P_USB_STRING_DESCR,        /* Device descriptor type */
 250:../USB_Descriptors.c ****     'K',0,'e',0,'y',0,'b',0,'o',0,'a',0,'r',0,'d',0
 251:../USB_Descriptors.c **** };
 252:../USB_Descriptors.c **** 
 253:../USB_Descriptors.c **** CyU3PReturnStatus_t SetUSBdescriptors(void)
 254:../USB_Descriptors.c **** {
 386              		.loc 1 254 0
 387              		.cfi_startproc
 388              		@ args = 0, pretend = 0, frame = 8
 389              		@ frame_needed = 1, uses_anonymous_args = 0
 390 0000 00482DE9 		stmfd	sp!, {fp, lr}
 391              	.LCFI0:
 392              		.cfi_def_cfa_offset 8
 393 0004 04B08DE2 		add	fp, sp, #4
 394              		.cfi_offset 14, -4
 395              		.cfi_offset 11, -8
 396              	.LCFI1:
 397              		.cfi_def_cfa 11, 4
 398 0008 08D04DE2 		sub	sp, sp, #8
 255:../USB_Descriptors.c **** 	CyU3PReturnStatus_t OverallStatus, Status;
 256:../USB_Descriptors.c **** 	OverallStatus = Status = CyU3PUsbSetDesc(CY_U3P_USB_SET_SS_DEVICE_DESCR, NULL, (uint8_t *)CyFxUSB3
 399              		.loc 1 256 0
 400 000c 0000A0E3 		mov	r0, #0
 401 0010 0010A0E3 		mov	r1, #0
 402 0014 D8219FE5 		ldr	r2, .L2
 403 0018 FEFFFFEB 		bl	CyU3PUsbSetDesc
 404 001c 08000BE5 		str	r0, [fp, #-8]
 405 0020 08301BE5 		ldr	r3, [fp, #-8]
 406 0024 0C300BE5 		str	r3, [fp, #-12]
 257:../USB_Descriptors.c ****     CheckStatus("SET_SS_DEVICE_DESCR", Status);
 407              		.loc 1 257 0
 408 0028 C8019FE5 		ldr	r0, .L2+4
 409 002c 08101BE5 		ldr	r1, [fp, #-8]
 410 0030 FEFFFFEB 		bl	CheckStatus
 258:../USB_Descriptors.c ****     OverallStatus |= Status = CyU3PUsbSetDesc(CY_U3P_USB_SET_HS_DEVICE_DESCR, NULL, (uint8_t *)CyFx
 411              		.loc 1 258 0
 412 0034 0100A0E3 		mov	r0, #1
 413 0038 0010A0E3 		mov	r1, #0
 414 003c B8219FE5 		ldr	r2, .L2+8
 415 0040 FEFFFFEB 		bl	CyU3PUsbSetDesc
 416 0044 08000BE5 		str	r0, [fp, #-8]
 417 0048 0C201BE5 		ldr	r2, [fp, #-12]
 418 004c 08301BE5 		ldr	r3, [fp, #-8]
 419 0050 033082E1 		orr	r3, r2, r3
 420 0054 0C300BE5 		str	r3, [fp, #-12]
 259:../USB_Descriptors.c ****     CheckStatus("SET_HS_DEVICE_DESCR", Status);
 421              		.loc 1 259 0
 422 0058 A0019FE5 		ldr	r0, .L2+12
 423 005c 08101BE5 		ldr	r1, [fp, #-8]
 424 0060 FEFFFFEB 		bl	CheckStatus
 260:../USB_Descriptors.c ****     OverallStatus |= Status = CyU3PUsbSetDesc(CY_U3P_USB_SET_SS_BOS_DESCR, NULL, (uint8_t *)CyFxUSB
 425              		.loc 1 260 0
 426 0064 0700A0E3 		mov	r0, #7
 427 0068 0010A0E3 		mov	r1, #0
 428 006c 90219FE5 		ldr	r2, .L2+16
 429 0070 FEFFFFEB 		bl	CyU3PUsbSetDesc
 430 0074 08000BE5 		str	r0, [fp, #-8]
 431 0078 0C201BE5 		ldr	r2, [fp, #-12]
 432 007c 08301BE5 		ldr	r3, [fp, #-8]
 433 0080 033082E1 		orr	r3, r2, r3
 434 0084 0C300BE5 		str	r3, [fp, #-12]
 261:../USB_Descriptors.c ****     CheckStatus("SET_SS_BOS_DESCR", Status);
 435              		.loc 1 261 0
 436 0088 78019FE5 		ldr	r0, .L2+20
 437 008c 08101BE5 		ldr	r1, [fp, #-8]
 438 0090 FEFFFFEB 		bl	CheckStatus
 262:../USB_Descriptors.c ****     OverallStatus |= Status = CyU3PUsbSetDesc(CY_U3P_USB_SET_DEVQUAL_DESCR, NULL, (uint8_t *)CyFxUS
 439              		.loc 1 262 0
 440 0094 0200A0E3 		mov	r0, #2
 441 0098 0010A0E3 		mov	r1, #0
 442 009c 68219FE5 		ldr	r2, .L2+24
 443 00a0 FEFFFFEB 		bl	CyU3PUsbSetDesc
 444 00a4 08000BE5 		str	r0, [fp, #-8]
 445 00a8 0C201BE5 		ldr	r2, [fp, #-12]
 446 00ac 08301BE5 		ldr	r3, [fp, #-8]
 447 00b0 033082E1 		orr	r3, r2, r3
 448 00b4 0C300BE5 		str	r3, [fp, #-12]
 263:../USB_Descriptors.c ****     CheckStatus("SET_DEVQUAL_DESCR", Status);
 449              		.loc 1 263 0
 450 00b8 50019FE5 		ldr	r0, .L2+28
 451 00bc 08101BE5 		ldr	r1, [fp, #-8]
 452 00c0 FEFFFFEB 		bl	CheckStatus
 264:../USB_Descriptors.c ****     OverallStatus |= Status = CyU3PUsbSetDesc(CY_U3P_USB_SET_SS_CONFIG_DESCR, NULL, (uint8_t *)CyFx
 453              		.loc 1 264 0
 454 00c4 0600A0E3 		mov	r0, #6
 455 00c8 0010A0E3 		mov	r1, #0
 456 00cc 40219FE5 		ldr	r2, .L2+32
 457 00d0 FEFFFFEB 		bl	CyU3PUsbSetDesc
 458 00d4 08000BE5 		str	r0, [fp, #-8]
 459 00d8 0C201BE5 		ldr	r2, [fp, #-12]
 460 00dc 08301BE5 		ldr	r3, [fp, #-8]
 461 00e0 033082E1 		orr	r3, r2, r3
 462 00e4 0C300BE5 		str	r3, [fp, #-12]
 265:../USB_Descriptors.c ****     CheckStatus("SET_SS_CONFIG_DESCR", Status);
 463              		.loc 1 265 0
 464 00e8 28019FE5 		ldr	r0, .L2+36
 465 00ec 08101BE5 		ldr	r1, [fp, #-8]
 466 00f0 FEFFFFEB 		bl	CheckStatus
 266:../USB_Descriptors.c ****     OverallStatus |= Status = CyU3PUsbSetDesc(CY_U3P_USB_SET_HS_CONFIG_DESCR, NULL, (uint8_t *)CyFx
 467              		.loc 1 266 0
 468 00f4 0400A0E3 		mov	r0, #4
 469 00f8 0010A0E3 		mov	r1, #0
 470 00fc 18219FE5 		ldr	r2, .L2+40
 471 0100 FEFFFFEB 		bl	CyU3PUsbSetDesc
 472 0104 08000BE5 		str	r0, [fp, #-8]
 473 0108 0C201BE5 		ldr	r2, [fp, #-12]
 474 010c 08301BE5 		ldr	r3, [fp, #-8]
 475 0110 033082E1 		orr	r3, r2, r3
 476 0114 0C300BE5 		str	r3, [fp, #-12]
 267:../USB_Descriptors.c ****     CheckStatus("SET_HS_CONFIG_DESCR", Status);
 477              		.loc 1 267 0
 478 0118 00019FE5 		ldr	r0, .L2+44
 479 011c 08101BE5 		ldr	r1, [fp, #-8]
 480 0120 FEFFFFEB 		bl	CheckStatus
 268:../USB_Descriptors.c ****     OverallStatus |= Status = CyU3PUsbSetDesc(CY_U3P_USB_SET_FS_CONFIG_DESCR, NULL, (uint8_t *)CyFx
 481              		.loc 1 268 0
 482 0124 0300A0E3 		mov	r0, #3
 483 0128 0010A0E3 		mov	r1, #0
 484 012c E8209FE5 		ldr	r2, .L2+40
 485 0130 FEFFFFEB 		bl	CyU3PUsbSetDesc
 486 0134 08000BE5 		str	r0, [fp, #-8]
 487 0138 0C201BE5 		ldr	r2, [fp, #-12]
 488 013c 08301BE5 		ldr	r3, [fp, #-8]
 489 0140 033082E1 		orr	r3, r2, r3
 490 0144 0C300BE5 		str	r3, [fp, #-12]
 269:../USB_Descriptors.c ****     CheckStatus("SET_FS_CONFIG_DESCR", Status);
 491              		.loc 1 269 0
 492 0148 D4009FE5 		ldr	r0, .L2+48
 493 014c 08101BE5 		ldr	r1, [fp, #-8]
 494 0150 FEFFFFEB 		bl	CheckStatus
 270:../USB_Descriptors.c ****     OverallStatus |= Status = CyU3PUsbSetDesc(CY_U3P_USB_SET_STRING_DESCR, 0, (uint8_t *)CyFxUSBStr
 495              		.loc 1 270 0
 496 0154 0500A0E3 		mov	r0, #5
 497 0158 0010A0E3 		mov	r1, #0
 498 015c C4209FE5 		ldr	r2, .L2+52
 499 0160 FEFFFFEB 		bl	CyU3PUsbSetDesc
 500 0164 08000BE5 		str	r0, [fp, #-8]
 501 0168 0C201BE5 		ldr	r2, [fp, #-12]
 502 016c 08301BE5 		ldr	r3, [fp, #-8]
 503 0170 033082E1 		orr	r3, r2, r3
 504 0174 0C300BE5 		str	r3, [fp, #-12]
 271:../USB_Descriptors.c ****     CheckStatus("SET_STRING0_DESCR", Status);
 505              		.loc 1 271 0
 506 0178 AC009FE5 		ldr	r0, .L2+56
 507 017c 08101BE5 		ldr	r1, [fp, #-8]
 508 0180 FEFFFFEB 		bl	CheckStatus
 272:../USB_Descriptors.c ****     OverallStatus |= Status = CyU3PUsbSetDesc(CY_U3P_USB_SET_STRING_DESCR, 1, (uint8_t *)CyFxUSBMan
 509              		.loc 1 272 0
 510 0184 0500A0E3 		mov	r0, #5
 511 0188 0110A0E3 		mov	r1, #1
 512 018c 9C209FE5 		ldr	r2, .L2+60
 513 0190 FEFFFFEB 		bl	CyU3PUsbSetDesc
 514 0194 08000BE5 		str	r0, [fp, #-8]
 515 0198 0C201BE5 		ldr	r2, [fp, #-12]
 516 019c 08301BE5 		ldr	r3, [fp, #-8]
 517 01a0 033082E1 		orr	r3, r2, r3
 518 01a4 0C300BE5 		str	r3, [fp, #-12]
 273:../USB_Descriptors.c ****     CheckStatus("SET_STRING1_DESCR", Status);
 519              		.loc 1 273 0
 520 01a8 84009FE5 		ldr	r0, .L2+64
 521 01ac 08101BE5 		ldr	r1, [fp, #-8]
 522 01b0 FEFFFFEB 		bl	CheckStatus
 274:../USB_Descriptors.c ****     OverallStatus |= Status = CyU3PUsbSetDesc(CY_U3P_USB_SET_STRING_DESCR, 2, (uint8_t *)CyFxUSBPro
 523              		.loc 1 274 0
 524 01b4 0500A0E3 		mov	r0, #5
 525 01b8 0210A0E3 		mov	r1, #2
 526 01bc 74209FE5 		ldr	r2, .L2+68
 527 01c0 FEFFFFEB 		bl	CyU3PUsbSetDesc
 528 01c4 08000BE5 		str	r0, [fp, #-8]
 529 01c8 0C201BE5 		ldr	r2, [fp, #-12]
 530 01cc 08301BE5 		ldr	r3, [fp, #-8]
 531 01d0 033082E1 		orr	r3, r2, r3
 532 01d4 0C300BE5 		str	r3, [fp, #-12]
 275:../USB_Descriptors.c ****     CheckStatus("SET_STRING2_DESCR", Status);
 533              		.loc 1 275 0
 534 01d8 5C009FE5 		ldr	r0, .L2+72
 535 01dc 08101BE5 		ldr	r1, [fp, #-8]
 536 01e0 FEFFFFEB 		bl	CheckStatus
 276:../USB_Descriptors.c **** 
 277:../USB_Descriptors.c ****     return OverallStatus;
 537              		.loc 1 277 0
 538 01e4 0C301BE5 		ldr	r3, [fp, #-12]
 278:../USB_Descriptors.c **** }
 539              		.loc 1 278 0
 540 01e8 0300A0E1 		mov	r0, r3
 541 01ec 04D04BE2 		sub	sp, fp, #4
 542 01f0 0088BDE8 		ldmfd	sp!, {fp, pc}
 543              	.L3:
 544              		.align	2
 545              	.L2:
 546 01f4 00000000 		.word	CyFxUSB30DeviceDscr
 547 01f8 00000000 		.word	.LC0
 548 01fc 00000000 		.word	CyFxUSB20DeviceDscr
 549 0200 14000000 		.word	.LC1
 550 0204 00000000 		.word	CyFxUSBBOSDscr
 551 0208 28000000 		.word	.LC2
 552 020c 00000000 		.word	CyFxUSBDeviceQualDscr
 553 0210 3C000000 		.word	.LC3
 554 0214 00000000 		.word	CyFxUSBSSConfigDscr
 555 0218 50000000 		.word	.LC4
 556 021c 00000000 		.word	CyFxUSBHSFSConfigDscr
 557 0220 64000000 		.word	.LC5
 558 0224 78000000 		.word	.LC6
 559 0228 00000000 		.word	CyFxUSBStringLangIDDscr
 560 022c 8C000000 		.word	.LC7
 561 0230 00000000 		.word	CyFxUSBManufactureDscr
 562 0234 A0000000 		.word	.LC8
 563 0238 00000000 		.word	CyFxUSBProductDscr
 564 023c B4000000 		.word	.LC9
 565              		.cfi_endproc
 566              	.LFE0:
 568              		.text
 569              	.Letext0:
DEFINED SYMBOLS
                            *ABS*:00000000 USB_Descriptors.c
C:\Users\John\AppData\Local\Temp\ccZeqPRm.s:26     .rodata.CyFxUSB30DeviceDscr:00000000 CyFxUSB30DeviceDscr
C:\Users\John\AppData\Local\Temp\ccZeqPRm.s:23     .rodata.CyFxUSB30DeviceDscr:00000000 $d
C:\Users\John\AppData\Local\Temp\ccZeqPRm.s:50     .rodata.CyFxUSB20DeviceDscr:00000000 CyFxUSB20DeviceDscr
C:\Users\John\AppData\Local\Temp\ccZeqPRm.s:47     .rodata.CyFxUSB20DeviceDscr:00000000 $d
C:\Users\John\AppData\Local\Temp\ccZeqPRm.s:74     .rodata.CyFxUSBBOSDscr:00000000 CyFxUSBBOSDscr
C:\Users\John\AppData\Local\Temp\ccZeqPRm.s:71     .rodata.CyFxUSBBOSDscr:00000000 $d
C:\Users\John\AppData\Local\Temp\ccZeqPRm.s:102    .rodata.CyFxUSBDeviceQualDscr:00000000 CyFxUSBDeviceQualDscr
C:\Users\John\AppData\Local\Temp\ccZeqPRm.s:99     .rodata.CyFxUSBDeviceQualDscr:00000000 $d
C:\Users\John\AppData\Local\Temp\ccZeqPRm.s:118    .rodata.ReportDescriptor:00000000 ReportDescriptor
C:\Users\John\AppData\Local\Temp\ccZeqPRm.s:115    .rodata.ReportDescriptor:00000000 $d
C:\Users\John\AppData\Local\Temp\ccZeqPRm.s:183    .rodata.CyFxUSBSSConfigDscr:00000000 CyFxUSBSSConfigDscr
C:\Users\John\AppData\Local\Temp\ccZeqPRm.s:180    .rodata.CyFxUSBSSConfigDscr:00000000 $d
C:\Users\John\AppData\Local\Temp\ccZeqPRm.s:229    .rodata.CyFxUSBHSFSConfigDscr:00000000 CyFxUSBHSFSConfigDscr
C:\Users\John\AppData\Local\Temp\ccZeqPRm.s:226    .rodata.CyFxUSBHSFSConfigDscr:00000000 $d
C:\Users\John\AppData\Local\Temp\ccZeqPRm.s:269    .rodata.CyFxUSBStringLangIDDscr:00000000 CyFxUSBStringLangIDDscr
C:\Users\John\AppData\Local\Temp\ccZeqPRm.s:266    .rodata.CyFxUSBStringLangIDDscr:00000000 $d
C:\Users\John\AppData\Local\Temp\ccZeqPRm.s:279    .rodata.CyFxUSBManufactureDscr:00000000 CyFxUSBManufactureDscr
C:\Users\John\AppData\Local\Temp\ccZeqPRm.s:276    .rodata.CyFxUSBManufactureDscr:00000000 $d
C:\Users\John\AppData\Local\Temp\ccZeqPRm.s:329    .rodata.CyFxUSBProductDscr:00000000 CyFxUSBProductDscr
C:\Users\John\AppData\Local\Temp\ccZeqPRm.s:326    .rodata.CyFxUSBProductDscr:00000000 $d
C:\Users\John\AppData\Local\Temp\ccZeqPRm.s:349    .rodata:00000000 $d
C:\Users\John\AppData\Local\Temp\ccZeqPRm.s:380    .text.SetUSBdescriptors:00000000 $a
C:\Users\John\AppData\Local\Temp\ccZeqPRm.s:383    .text.SetUSBdescriptors:00000000 SetUSBdescriptors
C:\Users\John\AppData\Local\Temp\ccZeqPRm.s:546    .text.SetUSBdescriptors:000001f4 $d
                     .debug_frame:00000010 $d

UNDEFINED SYMBOLS
CyU3PUsbSetDesc
CheckStatus
