   1              		.cpu arm926ej-s
   2              		.fpu softvfp
   3              		.eabi_attribute 20, 1
   4              		.eabi_attribute 21, 1
   5              		.eabi_attribute 23, 3
   6              		.eabi_attribute 24, 1
   7              		.eabi_attribute 25, 1
   8              		.eabi_attribute 26, 1
   9              		.eabi_attribute 30, 6
  10              		.eabi_attribute 18, 4
  11              		.file	"StartUp.c"
  19              	.Ltext0:
  20              		.cfi_sections	.debug_frame
  21              		.section	.rodata
  22              		.align	2
  23              	.LC0:
  24 0000 31313A49 		.ascii	"11:I2C_Example\000"
  24      32435F45 
  24      78616D70 
  24      6C6500
  25 000f 00       		.section	.text.CyFxApplicationDefine,"ax",%progbits
  26              		.align	2
  27              		.global	CyFxApplicationDefine
  29              	CyFxApplicationDefine:
  30              	.LFB0:
  31              		.file 1 "../StartUp.c"
   1:../StartUp.c  **** /*
   2:../StartUp.c  ****  * StartUp.c
   3:../StartUp.c  ****  *
   4:../StartUp.c  ****  *  Created on: Feb 18, 2014
   5:../StartUp.c  ****  *      Author: John
   6:../StartUp.c  ****  */
   7:../StartUp.c  **** 
   8:../StartUp.c  **** #include "Application.h"
   9:../StartUp.c  **** 
  10:../StartUp.c  **** extern void ApplicationThread(uint32_t Value);
  11:../StartUp.c  **** extern CyU3PThread ApplicationThreadHandle;
  12:../StartUp.c  **** 
  13:../StartUp.c  **** // ApplicationDefine function called by RTOS to startup the application threads
  14:../StartUp.c  **** void CyFxApplicationDefine(void)
  15:../StartUp.c  **** {
  32              		.loc 1 15 0
  33              		.cfi_startproc
  34              		@ args = 0, pretend = 0, frame = 8
  35              		@ frame_needed = 1, uses_anonymous_args = 0
  36 0000 00482DE9 		stmfd	sp!, {fp, lr}
  37              	.LCFI0:
  38              		.cfi_def_cfa_offset 8
  39 0004 04B08DE2 		add	fp, sp, #4
  40              		.cfi_offset 14, -4
  41              		.cfi_offset 11, -8
  42              	.LCFI1:
  43              		.cfi_def_cfa 11, 4
  44 0008 28D04DE2 		sub	sp, sp, #40
  16:../StartUp.c  ****     void *StackPtr = NULL;
  45              		.loc 1 16 0
  46 000c 0030A0E3 		mov	r3, #0
  47 0010 08300BE5 		str	r3, [fp, #-8]
  17:../StartUp.c  ****     uint32_t Status;
  18:../StartUp.c  **** 
  19:../StartUp.c  ****     StackPtr = CyU3PMemAlloc(APPLICATION_THREAD_STACK);
  48              		.loc 1 19 0
  49 0014 010AA0E3 		mov	r0, #4096
  50 0018 FEFFFFEB 		bl	CyU3PMemAlloc
  51 001c 08000BE5 		str	r0, [fp, #-8]
  20:../StartUp.c  ****     Status = CyU3PThreadCreate(&ApplicationThreadHandle,	// Handle to my Application Thread
  52              		.loc 1 20 0
  53 0020 08301BE5 		ldr	r3, [fp, #-8]
  54 0024 00308DE5 		str	r3, [sp, #0]
  55 0028 013AA0E3 		mov	r3, #4096
  56 002c 04308DE5 		str	r3, [sp, #4]
  57 0030 0830A0E3 		mov	r3, #8
  58 0034 08308DE5 		str	r3, [sp, #8]
  59 0038 0830A0E3 		mov	r3, #8
  60 003c 0C308DE5 		str	r3, [sp, #12]
  61 0040 0030A0E3 		mov	r3, #0
  62 0044 10308DE5 		str	r3, [sp, #16]
  63 0048 0130A0E3 		mov	r3, #1
  64 004c 14308DE5 		str	r3, [sp, #20]
  65 0050 D430A0E3 		mov	r3, #212
  66 0054 18308DE5 		str	r3, [sp, #24]
  67 0058 28009FE5 		ldr	r0, .L4
  68 005c 28109FE5 		ldr	r1, .L4+4
  69 0060 28209FE5 		ldr	r2, .L4+8
  70 0064 2A30A0E3 		mov	r3, #42
  71 0068 FEFFFFEB 		bl	_txe_thread_create
  72 006c 0C000BE5 		str	r0, [fp, #-12]
  21:../StartUp.c  ****             "11:I2C_Example",                		// Thread ID and name
  22:../StartUp.c  ****             ApplicationThread,     					// Thread entry function
  23:../StartUp.c  ****             42,                             		// Parameter passed to Thread
  24:../StartUp.c  ****             StackPtr,                       		// Pointer to the allocated thread stack
  25:../StartUp.c  ****             APPLICATION_THREAD_STACK,               // Allocated thread stack size
  26:../StartUp.c  ****             APPLICATION_THREAD_PRIORITY,            // Thread priority
  27:../StartUp.c  ****             APPLICATION_THREAD_PRIORITY,            // = Thread priority so no preemption
  28:../StartUp.c  ****             CYU3P_NO_TIME_SLICE,            		// Time slice no supported
  29:../StartUp.c  ****             CYU3P_AUTO_START                		// Start the thread immediately
  30:../StartUp.c  ****             );
  31:../StartUp.c  ****     if (Status != CY_U3P_SUCCESS)
  73              		.loc 1 31 0
  74 0070 0C301BE5 		ldr	r3, [fp, #-12]
  75 0074 000053E3 		cmp	r3, #0
  76 0078 0000000A 		beq	.L1
  77              	.L3:
  32:../StartUp.c  ****     {
  33:../StartUp.c  ****         /* Thread creation failed with the Status = error code */
  34:../StartUp.c  **** 
  35:../StartUp.c  ****         /* Add custom recovery or debug actions here */
  36:../StartUp.c  **** 
  37:../StartUp.c  ****         /* Application cannot continue. Loop indefinitely */
  38:../StartUp.c  ****         while(1);
  78              		.loc 1 38 0 discriminator 1
  79 007c FEFFFFEA 		b	.L3
  80              	.L1:
  39:../StartUp.c  ****     }
  40:../StartUp.c  **** }
  81              		.loc 1 40 0
  82 0080 04D04BE2 		sub	sp, fp, #4
  83 0084 0088BDE8 		ldmfd	sp!, {fp, pc}
  84              	.L5:
  85              		.align	2
  86              	.L4:
  87 0088 00000000 		.word	ApplicationThreadHandle
  88 008c 00000000 		.word	.LC0
  89 0090 00000000 		.word	ApplicationThread
  90              		.cfi_endproc
  91              	.LFE0:
  93              		.section	.text.main,"ax",%progbits
  94              		.align	2
  95              		.global	main
  97              	main:
  98              	.LFB1:
  41:../StartUp.c  **** 
  42:../StartUp.c  **** 
  43:../StartUp.c  **** // Main sets up the CPU environment the starts the RTOS
  44:../StartUp.c  **** int main (void)
  45:../StartUp.c  **** {
  99              		.loc 1 45 0
 100              		.cfi_startproc
 101              		@ args = 0, pretend = 0, frame = 48
 102              		@ frame_needed = 1, uses_anonymous_args = 0
 103 0000 00482DE9 		stmfd	sp!, {fp, lr}
 104              	.LCFI2:
 105              		.cfi_def_cfa_offset 8
 106 0004 04B08DE2 		add	fp, sp, #4
 107              		.cfi_offset 14, -4
 108              		.cfi_offset 11, -8
 109              	.LCFI3:
 110              		.cfi_def_cfa 11, 4
 111 0008 30D04DE2 		sub	sp, sp, #48
  46:../StartUp.c  ****     CyU3PIoMatrixConfig_t io_cfg;
  47:../StartUp.c  ****     CyU3PReturnStatus_t Status = CY_U3P_SUCCESS;
 112              		.loc 1 47 0
 113 000c 0030A0E3 		mov	r3, #0
 114 0010 08300BE5 		str	r3, [fp, #-8]
  48:../StartUp.c  **** 
  49:../StartUp.c  ****     Status = CyU3PDeviceInit(NULL);		// Setup with default clock parameters
 115              		.loc 1 49 0
 116 0014 0000A0E3 		mov	r0, #0
 117 0018 FEFFFFEB 		bl	CyU3PDeviceInit
 118 001c 08000BE5 		str	r0, [fp, #-8]
  50:../StartUp.c  ****     if (Status == CY_U3P_SUCCESS)
 119              		.loc 1 50 0
 120 0020 08301BE5 		ldr	r3, [fp, #-8]
 121 0024 000053E3 		cmp	r3, #0
 122 0028 1A00001A 		bne	.L7
  51:../StartUp.c  ****     {
  52:../StartUp.c  **** 		Status = CyU3PDeviceCacheControl(CyTrue, CyFalse, CyFalse);
 123              		.loc 1 52 0
 124 002c 0100A0E3 		mov	r0, #1
 125 0030 0010A0E3 		mov	r1, #0
 126 0034 0020A0E3 		mov	r2, #0
 127 0038 FEFFFFEB 		bl	CyU3PDeviceCacheControl
 128 003c 08000BE5 		str	r0, [fp, #-8]
  53:../StartUp.c  **** 		if (Status == CY_U3P_SUCCESS)
 129              		.loc 1 53 0
 130 0040 08301BE5 		ldr	r3, [fp, #-8]
 131 0044 000053E3 		cmp	r3, #0
 132 0048 1200001A 		bne	.L7
  54:../StartUp.c  **** 		{
  55:../StartUp.c  **** 			CyU3PMemSet((uint8_t *)&io_cfg, 0, sizeof(io_cfg));
 133              		.loc 1 55 0
 134 004c 30304BE2 		sub	r3, fp, #48
 135 0050 0300A0E1 		mov	r0, r3
 136 0054 0010A0E3 		mov	r1, #0
 137 0058 2820A0E3 		mov	r2, #40
 138 005c FEFFFFEB 		bl	CyU3PMemSet
  56:../StartUp.c  **** 			io_cfg.isDQ32Bit = CyTrue;
 139              		.loc 1 56 0
 140 0060 0130A0E3 		mov	r3, #1
 141 0064 30300BE5 		str	r3, [fp, #-48]
  57:../StartUp.c  **** //r			io_cfg.s0Mode 	 = CY_U3P_SPORT_INACTIVE;
  58:../StartUp.c  **** //r			io_cfg.s1Mode	 = CY_U3P_SPORT_INACTIVE;
  59:../StartUp.c  **** 			io_cfg.useUart   = CyTrue;
 142              		.loc 1 59 0
 143 0068 0130A0E3 		mov	r3, #1
 144 006c 2C300BE5 		str	r3, [fp, #-44]
  60:../StartUp.c  **** 			io_cfg.useI2C    = CyTrue;
 145              		.loc 1 60 0
 146 0070 0130A0E3 		mov	r3, #1
 147 0074 28300BE5 		str	r3, [fp, #-40]
  61:../StartUp.c  **** //r			io_cfg.useI2S    = CyFalse;
  62:../StartUp.c  **** //r			io_cfg.useSpi    = CyFalse;
  63:../StartUp.c  **** //			io_cfg.lppMode   = CY_U3P_IO_MATRIX_LPP_DEFAULT;
  64:../StartUp.c  **** //r			io_cfg.gpioSimpleEn[0]  = 0;
  65:../StartUp.c  **** //r			io_cfg.gpioSimpleEn[1]  = 0;
  66:../StartUp.c  **** //r			io_cfg.gpioComplexEn[0] = 0;
  67:../StartUp.c  **** //r			io_cfg.gpioComplexEn[1] = 0;
  68:../StartUp.c  **** 			Status = CyU3PDeviceConfigureIOMatrix(&io_cfg);
 148              		.loc 1 68 0
 149 0078 30304BE2 		sub	r3, fp, #48
 150 007c 0300A0E1 		mov	r0, r3
 151 0080 FEFFFFEB 		bl	CyU3PDeviceConfigureIOMatrix
 152 0084 08000BE5 		str	r0, [fp, #-8]
  69:../StartUp.c  **** 			if (Status == CY_U3P_SUCCESS) CyU3PKernelEntry();	// Start RTOS, this does not return
 153              		.loc 1 69 0
 154 0088 08301BE5 		ldr	r3, [fp, #-8]
 155 008c 000053E3 		cmp	r3, #0
 156 0090 0000001A 		bne	.L7
 157              		.loc 1 69 0 is_stmt 0 discriminator 1
 158 0094 FEFFFFEB 		bl	_tx_initialize_kernel_enter
 159              	.L7:
  70:../StartUp.c  **** 		}
  71:../StartUp.c  **** 	}
  72:../StartUp.c  ****     // Get here on a failure, can't recover, just hang here
  73:../StartUp.c  ****     while (1);
 160              		.loc 1 73 0 is_stmt 1 discriminator 1
 161 0098 FEFFFFEA 		b	.L7
 162              		.cfi_endproc
 163              	.LFE1:
 165              		.text
 166              	.Letext0: